
parking.elf：     文件格式 elf32-littleriscv


Disassembly of section .text:

00000000 <_start>:
   0:	80100137          	lui	sp,0x80100
   4:	0c0000ef          	jal	c4 <main>

00000008 <loop>:
   8:	0000006f          	j	8 <loop>

0000000c <write_term>:
   c:	fe010113          	addi	sp,sp,-32 # 800fffe0 <term_addr+0x800ffd64>
  10:	00112e23          	sw	ra,28(sp)
  14:	00812c23          	sw	s0,24(sp)
  18:	02010413          	addi	s0,sp,32
  1c:	00050793          	mv	a5,a0
  20:	fef407a3          	sb	a5,-17(s0)
  24:	00000797          	auipc	a5,0x0
  28:	25878793          	addi	a5,a5,600 # 27c <term_addr>
  2c:	0007a703          	lw	a4,0(a5)
  30:	400007b7          	lui	a5,0x40000
  34:	00f707b3          	add	a5,a4,a5
  38:	fef44703          	lbu	a4,-17(s0)
  3c:	00e78023          	sb	a4,0(a5) # 40000000 <term_addr+0x3ffffd84>
  40:	00000797          	auipc	a5,0x0
  44:	23c78793          	addi	a5,a5,572 # 27c <term_addr>
  48:	0007a783          	lw	a5,0(a5)
  4c:	00478713          	addi	a4,a5,4
  50:	00000797          	auipc	a5,0x0
  54:	22c78793          	addi	a5,a5,556 # 27c <term_addr>
  58:	00e7a023          	sw	a4,0(a5)
  5c:	00000013          	nop
  60:	01c12083          	lw	ra,28(sp)
  64:	01812403          	lw	s0,24(sp)
  68:	02010113          	addi	sp,sp,32
  6c:	00008067          	ret

00000070 <iprint>:
  70:	fe010113          	addi	sp,sp,-32
  74:	00112e23          	sw	ra,28(sp)
  78:	00812c23          	sw	s0,24(sp)
  7c:	02010413          	addi	s0,sp,32
  80:	fea42623          	sw	a0,-20(s0)
  84:	0200006f          	j	a4 <iprint+0x34>
  88:	fec42783          	lw	a5,-20(s0)
  8c:	0007c783          	lbu	a5,0(a5)
  90:	00078513          	mv	a0,a5
  94:	f79ff0ef          	jal	c <write_term>
  98:	fec42783          	lw	a5,-20(s0)
  9c:	00178793          	addi	a5,a5,1
  a0:	fef42623          	sw	a5,-20(s0)
  a4:	fec42783          	lw	a5,-20(s0)
  a8:	fe0780e3          	beqz	a5,88 <iprint+0x18>
  ac:	00000013          	nop
  b0:	00000013          	nop
  b4:	01c12083          	lw	ra,28(sp)
  b8:	01812403          	lw	s0,24(sp)
  bc:	02010113          	addi	sp,sp,32
  c0:	00008067          	ret

000000c4 <main>:
  c4:	fe010113          	addi	sp,sp,-32
  c8:	00112e23          	sw	ra,28(sp)
  cc:	00812c23          	sw	s0,24(sp)
  d0:	02010413          	addi	s0,sp,32
  d4:	00000797          	auipc	a5,0x0
  d8:	01878793          	addi	a5,a5,24 # ec <main+0x28>
  dc:	fef42623          	sw	a5,-20(s0)
  e0:	fec42503          	lw	a0,-20(s0)
  e4:	f8dff0ef          	jal	70 <iprint>
  e8:	0000006f          	j	e8 <main+0x24>
