
start.elf：     文件格式 elf32-littleriscv


Disassembly of section .text:

00000000 <_start>:
   0:	80000537          	lui	a0,0x80000
   4:	00050513          	mv	a0,a0
   8:	07300293          	li	t0,115
   c:	00550023          	sb	t0,0(a0) # 80000000 <_GLOBAL_OFFSET_TABLE_+0x7ffffb18>
  10:	00150513          	addi	a0,a0,1
  14:	07400293          	li	t0,116
  18:	00550023          	sb	t0,0(a0)
  1c:	00150513          	addi	a0,a0,1
  20:	06100293          	li	t0,97
  24:	00550023          	sb	t0,0(a0)
  28:	00150513          	addi	a0,a0,1
  2c:	07200293          	li	t0,114
  30:	00550023          	sb	t0,0(a0)
  34:	00150513          	addi	a0,a0,1
  38:	07400293          	li	t0,116
  3c:	00550023          	sb	t0,0(a0)
  40:	00150513          	addi	a0,a0,1
  44:	03a00293          	li	t0,58
  48:	00550023          	sb	t0,0(a0)
  4c:	00150513          	addi	a0,a0,1
  50:	00000293          	li	t0,0
  54:	00d00313          	li	t1,13

00000058 <map_zero_0_12>:
  58:	00550023          	sb	t0,0(a0)
  5c:	00150513          	addi	a0,a0,1
  60:	fff30313          	addi	t1,t1,-1
  64:	fe031ae3          	bnez	t1,58 <map_zero_0_12>
  68:	06000293          	li	t0,96
  6c:	00550023          	sb	t0,0(a0)
  70:	00150513          	addi	a0,a0,1
  74:	03100293          	li	t0,49
  78:	00c00313          	li	t1,12

0000007c <map_1_to_equal>:
  7c:	00550023          	sb	t0,0(a0)
  80:	00128293          	addi	t0,t0,1
  84:	00150513          	addi	a0,a0,1
  88:	fff30313          	addi	t1,t1,-1
  8c:	fe0318e3          	bnez	t1,7c <map_1_to_equal>
  90:	00050023          	sb	zero,0(a0)
  94:	00150513          	addi	a0,a0,1
  98:	00900293          	li	t0,9
  9c:	00550023          	sb	t0,0(a0)
  a0:	00150513          	addi	a0,a0,1
  a4:	07100293          	li	t0,113
  a8:	00550023          	sb	t0,0(a0)
  ac:	00150513          	addi	a0,a0,1
  b0:	07700293          	li	t0,119
  b4:	00550023          	sb	t0,0(a0)
  b8:	00150513          	addi	a0,a0,1
  bc:	06500293          	li	t0,101
  c0:	00550023          	sb	t0,0(a0)
  c4:	00150513          	addi	a0,a0,1
  c8:	07200293          	li	t0,114
  cc:	00550023          	sb	t0,0(a0)
  d0:	00150513          	addi	a0,a0,1
  d4:	07400293          	li	t0,116
  d8:	00550023          	sb	t0,0(a0)
  dc:	00150513          	addi	a0,a0,1
  e0:	07900293          	li	t0,121
  e4:	00550023          	sb	t0,0(a0)
  e8:	00150513          	addi	a0,a0,1
  ec:	07500293          	li	t0,117
  f0:	00550023          	sb	t0,0(a0)
  f4:	00150513          	addi	a0,a0,1
  f8:	06900293          	li	t0,105
  fc:	00550023          	sb	t0,0(a0)
 100:	00150513          	addi	a0,a0,1
 104:	06f00293          	li	t0,111
 108:	00550023          	sb	t0,0(a0)
 10c:	00150513          	addi	a0,a0,1
 110:	07000293          	li	t0,112
 114:	00550023          	sb	t0,0(a0)
 118:	00150513          	addi	a0,a0,1
 11c:	05b00293          	li	t0,91
 120:	00550023          	sb	t0,0(a0)
 124:	00150513          	addi	a0,a0,1
 128:	05d00293          	li	t0,93
 12c:	00550023          	sb	t0,0(a0)
 130:	00150513          	addi	a0,a0,1
 134:	05c00293          	li	t0,92
 138:	00550023          	sb	t0,0(a0)
 13c:	00150513          	addi	a0,a0,1
 140:	00050023          	sb	zero,0(a0)
 144:	00150513          	addi	a0,a0,1
 148:	06100293          	li	t0,97
 14c:	00550023          	sb	t0,0(a0)
 150:	00150513          	addi	a0,a0,1
 154:	07300293          	li	t0,115
 158:	00550023          	sb	t0,0(a0)
 15c:	00150513          	addi	a0,a0,1
 160:	06400293          	li	t0,100
 164:	00550023          	sb	t0,0(a0)
 168:	00150513          	addi	a0,a0,1
 16c:	06600293          	li	t0,102
 170:	00550023          	sb	t0,0(a0)
 174:	00150513          	addi	a0,a0,1
 178:	06700293          	li	t0,103
 17c:	00550023          	sb	t0,0(a0)
 180:	00150513          	addi	a0,a0,1
 184:	06800293          	li	t0,104
 188:	00550023          	sb	t0,0(a0)
 18c:	00150513          	addi	a0,a0,1
 190:	06a00293          	li	t0,106
 194:	00550023          	sb	t0,0(a0)
 198:	00150513          	addi	a0,a0,1
 19c:	06b00293          	li	t0,107
 1a0:	00550023          	sb	t0,0(a0)
 1a4:	00150513          	addi	a0,a0,1
 1a8:	06c00293          	li	t0,108
 1ac:	00550023          	sb	t0,0(a0)
 1b0:	00150513          	addi	a0,a0,1
 1b4:	03b00293          	li	t0,59
 1b8:	00550023          	sb	t0,0(a0)
 1bc:	00150513          	addi	a0,a0,1
 1c0:	02700293          	li	t0,39
 1c4:	00550023          	sb	t0,0(a0)
 1c8:	00150513          	addi	a0,a0,1
 1cc:	00a00293          	li	t0,10
 1d0:	00550023          	sb	t0,0(a0)
 1d4:	00150513          	addi	a0,a0,1
 1d8:	00050023          	sb	zero,0(a0)
 1dc:	00150513          	addi	a0,a0,1
 1e0:	07a00293          	li	t0,122
 1e4:	00550023          	sb	t0,0(a0)
 1e8:	00150513          	addi	a0,a0,1
 1ec:	07800293          	li	t0,120
 1f0:	00550023          	sb	t0,0(a0)
 1f4:	00150513          	addi	a0,a0,1
 1f8:	06300293          	li	t0,99
 1fc:	00550023          	sb	t0,0(a0)
 200:	00150513          	addi	a0,a0,1
 204:	07600293          	li	t0,118
 208:	00550023          	sb	t0,0(a0)
 20c:	00150513          	addi	a0,a0,1
 210:	06200293          	li	t0,98
 214:	00550023          	sb	t0,0(a0)
 218:	00150513          	addi	a0,a0,1
 21c:	06e00293          	li	t0,110
 220:	00550023          	sb	t0,0(a0)
 224:	00150513          	addi	a0,a0,1
 228:	06d00293          	li	t0,109
 22c:	00550023          	sb	t0,0(a0)
 230:	00150513          	addi	a0,a0,1
 234:	02c00293          	li	t0,44
 238:	00550023          	sb	t0,0(a0)
 23c:	00150513          	addi	a0,a0,1
 240:	02e00293          	li	t0,46
 244:	00550023          	sb	t0,0(a0)
 248:	00150513          	addi	a0,a0,1
 24c:	02f00293          	li	t0,47
 250:	00550023          	sb	t0,0(a0)
 254:	00150513          	addi	a0,a0,1
 258:	00050023          	sb	zero,0(a0)
 25c:	00150513          	addi	a0,a0,1
 260:	00050023          	sb	zero,0(a0)
 264:	00150513          	addi	a0,a0,1
 268:	00050023          	sb	zero,0(a0)
 26c:	00150513          	addi	a0,a0,1
 270:	02000293          	li	t0,32
 274:	00550023          	sb	t0,0(a0)
 278:	00150513          	addi	a0,a0,1
 27c:	00400313          	li	t1,4

00000280 <map_zero_69_72>:
 280:	00050023          	sb	zero,0(a0)
 284:	00150513          	addi	a0,a0,1
 288:	fff30313          	addi	t1,t1,-1
 28c:	fe031ae3          	bnez	t1,280 <map_zero_69_72>
 290:	00050023          	sb	zero,0(a0)
 294:	00150513          	addi	a0,a0,1
 298:	00a00293          	li	t0,10
 29c:	00550023          	sb	t0,0(a0)
 2a0:	00150513          	addi	a0,a0,1
 2a4:	00c00313          	li	t1,12

000002a8 <map_zero_75_86>:
 2a8:	00050023          	sb	zero,0(a0)
 2ac:	00150513          	addi	a0,a0,1
 2b0:	fff30313          	addi	t1,t1,-1
 2b4:	fe031ae3          	bnez	t1,2a8 <map_zero_75_86>
 2b8:	00400313          	li	t1,4

000002bc <map_zero_87_90>:
 2bc:	00050023          	sb	zero,0(a0)
 2c0:	00150513          	addi	a0,a0,1
 2c4:	fff30313          	addi	t1,t1,-1
 2c8:	fe031ae3          	bnez	t1,2bc <map_zero_87_90>
 2cc:	02a00293          	li	t0,42
 2d0:	00550023          	sb	t0,0(a0)
 2d4:	00150513          	addi	a0,a0,1
 2d8:	02f00293          	li	t0,47
 2dc:	00550023          	sb	t0,0(a0)
 2e0:	00150513          	addi	a0,a0,1
 2e4:	02d00293          	li	t0,45
 2e8:	00550023          	sb	t0,0(a0)
 2ec:	00150513          	addi	a0,a0,1
 2f0:	02e00293          	li	t0,46
 2f4:	00550023          	sb	t0,0(a0)
 2f8:	00150513          	addi	a0,a0,1
 2fc:	02b00293          	li	t0,43
 300:	00550023          	sb	t0,0(a0)
 304:	00150513          	addi	a0,a0,1
 308:	03000293          	li	t0,48
 30c:	00a00313          	li	t1,10

00000310 <map_kp_num>:
 310:	00550023          	sb	t0,0(a0)
 314:	00128293          	addi	t0,t0,1
 318:	00150513          	addi	a0,a0,1
 31c:	fff30313          	addi	t1,t1,-1
 320:	fe0318e3          	bnez	t1,310 <map_kp_num>
 324:	00050023          	sb	zero,0(a0)
 328:	00150513          	addi	a0,a0,1
 32c:	00050023          	sb	zero,0(a0)
 330:	00150513          	addi	a0,a0,1
 334:	00050023          	sb	zero,0(a0)
 338:	00150513          	addi	a0,a0,1
 33c:	09300313          	li	t1,147

00000340 <map_zero_rest>:
 340:	00050023          	sb	zero,0(a0)
 344:	00150513          	addi	a0,a0,1
 348:	fff30313          	addi	t1,t1,-1
 34c:	fe031ae3          	bnez	t1,340 <map_zero_rest>
 350:	90010537          	lui	a0,0x90010
 354:	00050513          	mv	a0,a0
 358:	900205b7          	lui	a1,0x90020
 35c:	00058593          	mv	a1,a1
 360:	80000637          	lui	a2,0x80000
 364:	00060613          	mv	a2,a2
 368:	07300293          	li	t0,115
 36c:	00550023          	sb	t0,0(a0) # 90010000 <_GLOBAL_OFFSET_TABLE_+0x9000fb18>
 370:	00150513          	addi	a0,a0,1
 374:	07400293          	li	t0,116
 378:	00550023          	sb	t0,0(a0)
 37c:	00150513          	addi	a0,a0,1
 380:	06100293          	li	t0,97
 384:	00550023          	sb	t0,0(a0)
 388:	00150513          	addi	a0,a0,1
 38c:	07200293          	li	t0,114
 390:	00550023          	sb	t0,0(a0)
 394:	00150513          	addi	a0,a0,1
 398:	07400293          	li	t0,116
 39c:	00550023          	sb	t0,0(a0)
 3a0:	00150513          	addi	a0,a0,1
 3a4:	03a00293          	li	t0,58
 3a8:	00550023          	sb	t0,0(a0)
 3ac:	00150513          	addi	a0,a0,1
 3b0:	00000293          	li	t0,0
 3b4:	10000313          	li	t1,256

000003b8 <keymap_loop>:
 3b8:	00560023          	sb	t0,0(a2) # 80000000 <_GLOBAL_OFFSET_TABLE_+0x7ffffb18>
 3bc:	00160613          	addi	a2,a2,1
 3c0:	00128293          	addi	t0,t0,1
 3c4:	fff30313          	addi	t1,t1,-1
 3c8:	fe0318e3          	bnez	t1,3b8 <keymap_loop>
 3cc:	80000637          	lui	a2,0x80000
 3d0:	00060613          	mv	a2,a2

000003d4 <poll_loop>:
 3d4:	00258283          	lb	t0,2(a1) # 90020002 <_GLOBAL_OFFSET_TABLE_+0x9001fb1a>
 3d8:	fe028ee3          	beqz	t0,3d4 <poll_loop>
 3dc:	0040006f          	j	3e0 <handle_event>

000003e0 <handle_event>:
 3e0:	00058023          	sb	zero,0(a1)
 3e4:	00058e03          	lb	t3,0(a1)
 3e8:	00158e83          	lb	t4,1(a1)
 3ec:	fe0e94e3          	bnez	t4,3d4 <poll_loop>
 3f0:	01c60f33          	add	t5,a2,t3
 3f4:	000f4f83          	lbu	t6,0(t5)
 3f8:	01f50023          	sb	t6,0(a0)
 3fc:	00150513          	addi	a0,a0,1
 400:	fd5ff06f          	j	3d4 <poll_loop>

00000404 <done>:
 404:	0000006f          	j	404 <done>
